; Function Attrs: null_pointer_is_valid sspstrong uwtable
define internal void @nas_5gs_updp_ue_policy_prov_rej(ptr noundef %0, ptr noundef %1, ptr noundef initializes((384, 388)) %2, i32 noundef %3, i32 noundef %4) #0 {
  %6 = getelementptr inbounds nuw i8, ptr %2, i64 384
  store i32 1, ptr %6, align 8
  %7 = icmp sgt i32 %4, 0
  br i1 %7, label %8, label %10

8:                                                ; preds = %5
  %9 = tail call zeroext i16 @elem_v(ptr noundef %0, ptr noundef %1, ptr noundef %2, i32 noundef 19, i32 noundef 6, i32 noundef %3, ptr noundef null)
  %.not = icmp eq i16 %9, 0
  br i1 %.not, label %10, label %13

10:                                               ; preds = %8, %5
  %11 = tail call ptr @get_gsm_a_msg_string(i32 noundef 19, i32 noundef 6)
  %12 = tail call ptr (ptr, ptr, ptr, ptr, i32, i32, ptr, ...) @proto_tree_add_expert_format(ptr noundef %1, ptr noundef %2, ptr noundef nonnull @ei_nas_5gs_missing_mandatory_element, ptr noundef %0, i32 noundef %3, i32 noundef 0, ptr noundef nonnull @.str.1664, ptr noundef %11, ptr noundef nonnull @.str.1644)
  br label %13

13:                                               ; preds = %8, %10
  ret void
}